target datalayout = "e-m:e-p270:32:32-p271:32:32-p272:64:64-i64:64-i128:128-f80:128-n8:16:32:64-S128"
target triple = "x86_64-pc-linux-gnu"

%struct.dtlink_s_ = type { ptr, %union.anon }
%union.anon = type { ptr }
%struct.paird = type { double, double }
%struct.channel = type { %struct.dtlink_s_, %struct.paird, %struct.seg_list_t, ptr, ptr }
%struct.seg_list_t = type { ptr, i64, i64, i64 }

; Function Attrs: inlinehint nounwind uwtable
define internal void @seg_list_noop_(ptr noundef %0) #2 {
  %2 = alloca ptr, align 8
  store ptr %0, ptr %2, align 8, !tbaa !76
  ret void
}

; Function Attrs: inlinehint nounwind uwtable
define internal ptr @seg_list_get(ptr noundef %0, i64 noundef %1) #2 {
  %3 = alloca ptr, align 8
  %4 = alloca i64, align 8
  store ptr %0, ptr %3, align 8, !tbaa !10
  store i64 %1, ptr %4, align 8, !tbaa !27
  %5 = load ptr, ptr %3, align 8, !tbaa !10
  %6 = getelementptr inbounds nuw %struct.seg_list_t, ptr %5, i32 0, i32 0
  %7 = load ptr, ptr %6, align 8, !tbaa !168
  %8 = load ptr, ptr %3, align 8, !tbaa !10
  %9 = getelementptr inbounds nuw %struct.seg_list_t, ptr %8, i32 0, i32 1
  %10 = load i64, ptr %9, align 8, !tbaa !171
  %11 = load i64, ptr %4, align 8, !tbaa !27
  %12 = add i64 %10, %11
  %13 = load ptr, ptr %3, align 8, !tbaa !10
  %14 = getelementptr inbounds nuw %struct.seg_list_t, ptr %13, i32 0, i32 3
  %15 = load i64, ptr %14, align 8, !tbaa !172
  %16 = urem i64 %12, %15
  %17 = getelementptr inbounds nuw ptr, ptr %7, i64 %16
  %18 = load ptr, ptr %17, align 8, !tbaa !76
  ret ptr %18
}

; Function Attrs: inlinehint nounwind uwtable
define internal void @seg_list_clear(ptr noundef %0) #2 {
  %2 = alloca ptr, align 8
  %3 = alloca i64, align 8
  store ptr %0, ptr %2, align 8, !tbaa !10
  call void @llvm.lifetime.start.p0(i64 8, ptr %3) #12
  store i64 0, ptr %3, align 8, !tbaa !27
  br label %4

4:                                                ; preds = %18, %1
  %5 = load i64, ptr %3, align 8, !tbaa !27
  %6 = load ptr, ptr %2, align 8, !tbaa !10
  %7 = getelementptr inbounds nuw %struct.seg_list_t, ptr %6, i32 0, i32 2
  %8 = load i64, ptr %7, align 8, !tbaa !169
  %9 = icmp ult i64 %5, %8
  br i1 %9, label %11, label %10

10:                                               ; preds = %4
  call void @llvm.lifetime.end.p0(i64 8, ptr %3) #12
  br label %21

11:                                               ; preds = %4
  %12 = load ptr, ptr %2, align 8, !tbaa !10
  %13 = load i64, ptr %3, align 8, !tbaa !27
  %14 = call ptr @seg_list_get(ptr noundef %12, i64 noundef %13)
  call void @seg_list_noop_(ptr noundef %14)
  br label %15

15:                                               ; preds = %11
  br label %16

16:                                               ; preds = %15
  br label %17

17:                                               ; preds = %16
  br label %18

18:                                               ; preds = %17
  %19 = load i64, ptr %3, align 8, !tbaa !27
  %20 = add i64 %19, 1
  store i64 %20, ptr %3, align 8, !tbaa !27
  br label %4, !llvm.loop !170

21:                                               ; preds = %10
  %22 = load ptr, ptr %2, align 8, !tbaa !10
  %23 = getelementptr inbounds nuw %struct.seg_list_t, ptr %22, i32 0, i32 2
  store i64 0, ptr %23, align 8, !tbaa !169
  %24 = load ptr, ptr %2, align 8, !tbaa !10
  %25 = getelementptr inbounds nuw %struct.seg_list_t, ptr %24, i32 0, i32 1
  store i64 0, ptr %25, align 8, !tbaa !171
  ret void
}

; Function Attrs: inlinehint nounwind uwtable
define internal void @seg_list_free(ptr noundef %0) #2 {
  %2 = alloca ptr, align 8
  store ptr %0, ptr %2, align 8, !tbaa !10
  %3 = load ptr, ptr %2, align 8, !tbaa !10
  call void @seg_list_clear(ptr noundef %3)
  %4 = load ptr, ptr %2, align 8, !tbaa !10
  %5 = getelementptr inbounds nuw %struct.seg_list_t, ptr %4, i32 0, i32 0
  %6 = load ptr, ptr %5, align 8, !tbaa !168
  call void @free(ptr noundef %6) #12
  %7 = load ptr, ptr %2, align 8, !tbaa !10
  call void @llvm.memset.p0.i64(ptr align 8 %7, i8 0, i64 32, i1 false)
  ret void
}

; Function Attrs: nounwind uwtable
define internal void @freeChannel(ptr noundef %0) #0 {
  %2 = alloca ptr, align 8
  %3 = alloca ptr, align 8
  store ptr %0, ptr %2, align 8, !tbaa !10
  call void @llvm.lifetime.start.p0(i64 8, ptr %3) #12
  %4 = load ptr, ptr %2, align 8, !tbaa !10
  store ptr %4, ptr %3, align 8, !tbaa !10
  %5 = load ptr, ptr %3, align 8, !tbaa !10
  %6 = getelementptr inbounds nuw %struct.channel, ptr %5, i32 0, i32 3
  %7 = load ptr, ptr %6, align 8, !tbaa !165
  call void @free_graph(ptr noundef %7)
  %8 = load ptr, ptr %3, align 8, !tbaa !10
  %9 = getelementptr inbounds nuw %struct.channel, ptr %8, i32 0, i32 2
  call void @seg_list_free(ptr noundef %9)
  %10 = load ptr, ptr %3, align 8, !tbaa !10
  call void @free(ptr noundef %10) #12
  call void @llvm.lifetime.end.p0(i64 8, ptr %3) #12
  ret void
}