; Function Attrs: nounwind uwtable
define internal void @freeChannel(ptr noundef captures(none) initializes((40, 56)) %0) #0 {
  %2 = getelementptr inbounds nuw i8, ptr %0, i64 64
  %3 = load ptr, ptr %2, align 8, !tbaa !124
  tail call void @free_graph(ptr noundef %3) #18
  %4 = getelementptr inbounds nuw i8, ptr %0, i64 32
  %5 = getelementptr inbounds nuw i8, ptr %0, i64 40
  tail call void @llvm.memset.p0.i64(ptr noundef nonnull align 8 dereferenceable(16) %5, i8 0, i64 16, i1 false)
  %6 = load ptr, ptr %4, align 8, !tbaa !122
  tail call void @free(ptr noundef %6) #18
  tail call void @free(ptr noundef %0) #18
  ret void
}